; Function Attrs: nounwind uwtable
define internal ptr @CDataType_from_param(ptr noundef %0, ptr noundef readonly captures(none) %1, ptr noundef %2, i64 noundef %3, ptr noundef %4) #0 {
  %6 = alloca [1 x ptr], align 8
  call void @llvm.lifetime.start.p0(i64 8, ptr nonnull %6) #17
  %7 = icmp eq ptr %4, null
  %8 = icmp eq i64 %3, 1
  %or.cond3 = and i1 %8, %7
  %9 = icmp ne ptr %2, null
  %or.cond5 = and i1 %9, %or.cond3
  br i1 %or.cond5, label %.thread, label %10

10:                                               ; preds = %5
  %11 = call ptr @_PyArg_UnpackKeywords(ptr noundef %2, i64 noundef %3, ptr noundef null, ptr noundef %4, ptr noundef nonnull @CDataType_from_param._parser, i32 noundef 1, i32 noundef 1, i32 noundef 0, i32 noundef 0, ptr noundef nonnull %6) #17
  %.not = icmp eq ptr %11, null
  br i1 %.not, label %15, label %.thread

.thread:                                          ; preds = %5, %10
  %12 = phi ptr [ %11, %10 ], [ %2, %5 ]
  %13 = load ptr, ptr %12, align 8, !tbaa !27
  %14 = call fastcc ptr @CDataType_from_param_impl(ptr noundef %0, ptr noundef %1, ptr noundef %13)
  br label %15

15:                                               ; preds = %10, %.thread
  %.0 = phi ptr [ %14, %.thread ], [ null, %10 ]
  call void @llvm.lifetime.end.p0(i64 8, ptr nonnull %6) #17
  ret ptr %.0
}